; Function Attrs: mustprogress uwtable
define noundef ptr @_ZNK19OpenColorIO_v2_5dev9FileRules4Impl25getColorSpaceFromFilepathERKNS_6ConfigEPKcRm(ptr noundef nonnull readonly align 8 captures(none) dereferenceable(24) %0, ptr noundef nonnull align 8 dereferenceable(8) %1, ptr noundef %2, ptr noundef nonnull writeonly align 8 captures(none) dereferenceable(8) %3) local_unnamed_addr #0 align 2 {
  %5 = getelementptr inbounds nuw i8, ptr %0, i64 8
  %6 = load ptr, ptr %5, align 8, !tbaa !14
  %7 = load ptr, ptr %0, align 8, !tbaa !11
  %.not15.not.i = icmp eq ptr %6, %7
  br i1 %.not15.not.i, label %._crit_edge.i, label %.lr.ph.preheader.i

.lr.ph.preheader.i:                               ; preds = %4
  %8 = ptrtoint ptr %6 to i64
  %9 = ptrtoint ptr %7 to i64
  %10 = sub i64 %8, %9
  %11 = ashr exact i64 %10, 4
  %umax.i = tail call i64 @llvm.umax.i64(i64 %11, i64 1)
  br label %.lr.ph.i

.lr.ph.i:                                         ; preds = %18, %.lr.ph.preheader.i
  %.01116.i = phi i64 [ %19, %18 ], [ 0, %.lr.ph.preheader.i ]
  %12 = load ptr, ptr %0, align 8, !tbaa !11
  %13 = getelementptr inbounds nuw %"class.std::shared_ptr.0", ptr %12, i64 %.01116.i
  %14 = load ptr, ptr %13, align 8, !tbaa !36
  %15 = tail call noundef zeroext i1 @_ZNK19OpenColorIO_v2_5dev8FileRule7matchesERKNS_6ConfigEPKc(ptr noundef nonnull align 8 dereferenceable(212) %14, ptr noundef nonnull align 8 dereferenceable(8) %1, ptr noundef %2)
  br i1 %15, label %.thread.i, label %18

.thread.i:                                        ; preds = %.lr.ph.i
  store i64 %.01116.i, ptr %3, align 8, !tbaa !67
  %16 = load ptr, ptr %0, align 8, !tbaa !11
  %17 = getelementptr inbounds nuw %"class.std::shared_ptr.0", ptr %16, i64 %.01116.i
  br label %_ZNK19OpenColorIO_v2_5dev9FileRules4Impl19getRuleFromFilepathERKNS_6ConfigEPKcRm.exit

18:                                               ; preds = %.lr.ph.i
  %19 = add nuw i64 %.01116.i, 1
  %exitcond.not.i = icmp eq i64 %19, %umax.i
  br i1 %exitcond.not.i, label %._crit_edge.loopexit.i, label %.lr.ph.i, !llvm.loop !68

._crit_edge.loopexit.i:                           ; preds = %18
  %.pre.i = load ptr, ptr %5, align 8, !tbaa !35
  br label %._crit_edge.i

._crit_edge.i:                                    ; preds = %._crit_edge.loopexit.i, %4
  %20 = phi ptr [ %.pre.i, %._crit_edge.loopexit.i ], [ %6, %4 ]
  %21 = getelementptr inbounds i8, ptr %20, i64 -16
  br label %_ZNK19OpenColorIO_v2_5dev9FileRules4Impl19getRuleFromFilepathERKNS_6ConfigEPKcRm.exit

_ZNK19OpenColorIO_v2_5dev9FileRules4Impl19getRuleFromFilepathERKNS_6ConfigEPKcRm.exit: ; preds = %.thread.i, %._crit_edge.i
  %.pn.in.i = phi ptr [ %21, %._crit_edge.i ], [ %17, %.thread.i ]
  %.pn.i = load ptr, ptr %.pn.in.i, align 8, !tbaa !36
  %.1.in.i = getelementptr inbounds nuw i8, ptr %.pn.i, i64 80
  %.1.i = load ptr, ptr %.1.in.i, align 8, !tbaa !62
  ret ptr %.1.i
}